; Function Attrs: mustprogress uwtable
define hidden void @_ZN2cv11xfeatures2d9LUCIDImplC1Eii(ptr noundef nonnull align 8 dereferenceable(16) %0, i32 noundef %1, i32 noundef %2) unnamed_addr #0 align 2 personality ptr @__gxx_personality_v0 {
  tail call void @_ZN2cv9AlgorithmC2Ev(ptr noundef nonnull align 8 dereferenceable(8) %0)
  store ptr getelementptr inbounds nuw inrange(-80, 160) (i8, ptr @_ZTVN2cv11xfeatures2d9LUCIDImplE, i64 80), ptr %0, align 8, !tbaa !14
  %4 = getelementptr inbounds nuw i8, ptr %0, i64 8
  store i32 %1, ptr %4, align 8, !tbaa !16
  %5 = shl nsw i32 %2, 1
  %6 = or disjoint i32 %5, 1
  %7 = getelementptr inbounds nuw i8, ptr %0, i64 12
  store i32 %6, ptr %7, align 4, !tbaa !20
  ret void
}